
no_analysis:     file format elf64-x86-64


Disassembly of section .init:

0000000000001000 <_init>:
    1000:	f3 0f 1e fa          	endbr64 
    1004:	48 83 ec 08          	sub    $0x8,%rsp
    1008:	48 8b 05 d9 2f 00 00 	mov    0x2fd9(%rip),%rax        # 3fe8 <__gmon_start__>
    100f:	48 85 c0             	test   %rax,%rax
    1012:	74 02                	je     1016 <_init+0x16>
    1014:	ff d0                	callq  *%rax
    1016:	48 83 c4 08          	add    $0x8,%rsp
    101a:	c3                   	retq   

Disassembly of section .plt:

0000000000001020 <.plt>:
    1020:	ff 35 6a 2f 00 00    	pushq  0x2f6a(%rip)        # 3f90 <_GLOBAL_OFFSET_TABLE_+0x8>
    1026:	f2 ff 25 6b 2f 00 00 	bnd jmpq *0x2f6b(%rip)        # 3f98 <_GLOBAL_OFFSET_TABLE_+0x10>
    102d:	0f 1f 00             	nopl   (%rax)
    1030:	f3 0f 1e fa          	endbr64 
    1034:	68 00 00 00 00       	pushq  $0x0
    1039:	f2 e9 e1 ff ff ff    	bnd jmpq 1020 <.plt>
    103f:	90                   	nop
    1040:	f3 0f 1e fa          	endbr64 
    1044:	68 01 00 00 00       	pushq  $0x1
    1049:	f2 e9 d1 ff ff ff    	bnd jmpq 1020 <.plt>
    104f:	90                   	nop
    1050:	f3 0f 1e fa          	endbr64 
    1054:	68 02 00 00 00       	pushq  $0x2
    1059:	f2 e9 c1 ff ff ff    	bnd jmpq 1020 <.plt>
    105f:	90                   	nop
    1060:	f3 0f 1e fa          	endbr64 
    1064:	68 03 00 00 00       	pushq  $0x3
    1069:	f2 e9 b1 ff ff ff    	bnd jmpq 1020 <.plt>
    106f:	90                   	nop
    1070:	f3 0f 1e fa          	endbr64 
    1074:	68 04 00 00 00       	pushq  $0x4
    1079:	f2 e9 a1 ff ff ff    	bnd jmpq 1020 <.plt>
    107f:	90                   	nop
    1080:	f3 0f 1e fa          	endbr64 
    1084:	68 05 00 00 00       	pushq  $0x5
    1089:	f2 e9 91 ff ff ff    	bnd jmpq 1020 <.plt>
    108f:	90                   	nop

Disassembly of section .plt.got:

0000000000001090 <__cxa_finalize@plt>:
    1090:	f3 0f 1e fa          	endbr64 
    1094:	f2 ff 25 35 2f 00 00 	bnd jmpq *0x2f35(%rip)        # 3fd0 <__cxa_finalize@GLIBC_2.2.5>
    109b:	0f 1f 44 00 00       	nopl   0x0(%rax,%rax,1)

Disassembly of section .plt.sec:

00000000000010a0 <_ZSt4endlIcSt11char_traitsIcEERSt13basic_ostreamIT_T0_ES6_@plt>:
    10a0:	f3 0f 1e fa          	endbr64 
    10a4:	f2 ff 25 f5 2e 00 00 	bnd jmpq *0x2ef5(%rip)        # 3fa0 <_ZSt4endlIcSt11char_traitsIcEERSt13basic_ostreamIT_T0_ES6_@GLIBCXX_3.4>
    10ab:	0f 1f 44 00 00       	nopl   0x0(%rax,%rax,1)

00000000000010b0 <__cxa_atexit@plt>:
    10b0:	f3 0f 1e fa          	endbr64 
    10b4:	f2 ff 25 ed 2e 00 00 	bnd jmpq *0x2eed(%rip)        # 3fa8 <__cxa_atexit@GLIBC_2.2.5>
    10bb:	0f 1f 44 00 00       	nopl   0x0(%rax,%rax,1)

00000000000010c0 <_ZSt16__ostream_insertIcSt11char_traitsIcEERSt13basic_ostreamIT_T0_ES6_PKS3_l@plt>:
    10c0:	f3 0f 1e fa          	endbr64 
    10c4:	f2 ff 25 e5 2e 00 00 	bnd jmpq *0x2ee5(%rip)        # 3fb0 <_ZSt16__ostream_insertIcSt11char_traitsIcEERSt13basic_ostreamIT_T0_ES6_PKS3_l@GLIBCXX_3.4.9>
    10cb:	0f 1f 44 00 00       	nopl   0x0(%rax,%rax,1)

00000000000010d0 <_ZNSt8ios_base4InitC1Ev@plt>:
    10d0:	f3 0f 1e fa          	endbr64 
    10d4:	f2 ff 25 dd 2e 00 00 	bnd jmpq *0x2edd(%rip)        # 3fb8 <_ZNSt8ios_base4InitC1Ev@GLIBCXX_3.4>
    10db:	0f 1f 44 00 00       	nopl   0x0(%rax,%rax,1)

00000000000010e0 <_ZNSo9_M_insertIdEERSoT_@plt>:
    10e0:	f3 0f 1e fa          	endbr64 
    10e4:	f2 ff 25 d5 2e 00 00 	bnd jmpq *0x2ed5(%rip)        # 3fc0 <_ZNSo9_M_insertIdEERSoT_@GLIBCXX_3.4.9>
    10eb:	0f 1f 44 00 00       	nopl   0x0(%rax,%rax,1)

00000000000010f0 <_ZNSolsEi@plt>:
    10f0:	f3 0f 1e fa          	endbr64 
    10f4:	f2 ff 25 cd 2e 00 00 	bnd jmpq *0x2ecd(%rip)        # 3fc8 <_ZNSolsEi@GLIBCXX_3.4>
    10fb:	0f 1f 44 00 00       	nopl   0x0(%rax,%rax,1)

Disassembly of section .text:

0000000000001100 <main>:
    1100:	f3 0f 1e fa          	endbr64 
    1104:	48 83 ec 08          	sub    $0x8,%rsp
    1108:	ba 07 00 00 00       	mov    $0x7,%edx
    110d:	48 8d 35 f2 0e 00 00 	lea    0xef2(%rip),%rsi        # 2006 <_IO_stdin_used+0x6>
    1114:	48 8d 3d 25 2f 00 00 	lea    0x2f25(%rip),%rdi        # 4040 <_ZSt4cout@@GLIBCXX_3.4>
    111b:	e8 a0 ff ff ff       	callq  10c0 <_ZSt16__ostream_insertIcSt11char_traitsIcEERSt13basic_ostreamIT_T0_ES6_PKS3_l@plt>
    1120:	f2 0f 10 05 f0 0e 00 	movsd  0xef0(%rip),%xmm0        # 2018 <_IO_stdin_used+0x18>
    1127:	00 
    1128:	48 8d 3d 11 2f 00 00 	lea    0x2f11(%rip),%rdi        # 4040 <_ZSt4cout@@GLIBCXX_3.4>
    112f:	e8 ac ff ff ff       	callq  10e0 <_ZNSo9_M_insertIdEERSoT_@plt>
    1134:	48 89 c7             	mov    %rax,%rdi
    1137:	e8 64 ff ff ff       	callq  10a0 <_ZSt4endlIcSt11char_traitsIcEERSt13basic_ostreamIT_T0_ES6_@plt>
    113c:	ba 05 00 00 00       	mov    $0x5,%edx
    1141:	48 8d 35 c6 0e 00 00 	lea    0xec6(%rip),%rsi        # 200e <_IO_stdin_used+0xe>
    1148:	48 8d 3d f1 2e 00 00 	lea    0x2ef1(%rip),%rdi        # 4040 <_ZSt4cout@@GLIBCXX_3.4>
    114f:	e8 6c ff ff ff       	callq  10c0 <_ZSt16__ostream_insertIcSt11char_traitsIcEERSt13basic_ostreamIT_T0_ES6_PKS3_l@plt>
    1154:	f2 0f 10 05 c4 0e 00 	movsd  0xec4(%rip),%xmm0        # 2020 <_IO_stdin_used+0x20>
    115b:	00 
    115c:	48 8d 3d dd 2e 00 00 	lea    0x2edd(%rip),%rdi        # 4040 <_ZSt4cout@@GLIBCXX_3.4>
    1163:	e8 78 ff ff ff       	callq  10e0 <_ZNSo9_M_insertIdEERSoT_@plt>
    1168:	48 89 c7             	mov    %rax,%rdi
    116b:	e8 30 ff ff ff       	callq  10a0 <_ZSt4endlIcSt11char_traitsIcEERSt13basic_ostreamIT_T0_ES6_@plt>
    1170:	31 c0                	xor    %eax,%eax
    1172:	48 83 c4 08          	add    $0x8,%rsp
    1176:	c3                   	retq   
    1177:	66 0f 1f 84 00 00 00 	nopw   0x0(%rax,%rax,1)
    117e:	00 00 

0000000000001180 <_GLOBAL__sub_I__Z10streamUnitRSoiRKNSt7__cxx1112basic_stringIcSt11char_traitsIcESaIcEEE>:
    1180:	f3 0f 1e fa          	endbr64 
    1184:	48 83 ec 08          	sub    $0x8,%rsp
    1188:	48 8d 3d c2 2f 00 00 	lea    0x2fc2(%rip),%rdi        # 4151 <_ZStL8__ioinit>
    118f:	e8 3c ff ff ff       	callq  10d0 <_ZNSt8ios_base4InitC1Ev@plt>
    1194:	48 8b 3d 5d 2e 00 00 	mov    0x2e5d(%rip),%rdi        # 3ff8 <_ZNSt8ios_base4InitD1Ev@GLIBCXX_3.4>
    119b:	48 83 c4 08          	add    $0x8,%rsp
    119f:	48 8d 15 62 2e 00 00 	lea    0x2e62(%rip),%rdx        # 4008 <__dso_handle>
    11a6:	48 8d 35 a4 2f 00 00 	lea    0x2fa4(%rip),%rsi        # 4151 <_ZStL8__ioinit>
    11ad:	e9 fe fe ff ff       	jmpq   10b0 <__cxa_atexit@plt>
    11b2:	66 2e 0f 1f 84 00 00 	nopw   %cs:0x0(%rax,%rax,1)
    11b9:	00 00 00 
    11bc:	0f 1f 40 00          	nopl   0x0(%rax)

00000000000011c0 <_start>:
    11c0:	f3 0f 1e fa          	endbr64 
    11c4:	31 ed                	xor    %ebp,%ebp
    11c6:	49 89 d1             	mov    %rdx,%r9
    11c9:	5e                   	pop    %rsi
    11ca:	48 89 e2             	mov    %rsp,%rdx
    11cd:	48 83 e4 f0          	and    $0xfffffffffffffff0,%rsp
    11d1:	50                   	push   %rax
    11d2:	54                   	push   %rsp
    11d3:	4c 8d 05 a6 01 00 00 	lea    0x1a6(%rip),%r8        # 1380 <__libc_csu_fini>
    11da:	48 8d 0d 2f 01 00 00 	lea    0x12f(%rip),%rcx        # 1310 <__libc_csu_init>
    11e1:	48 8d 3d 18 ff ff ff 	lea    -0xe8(%rip),%rdi        # 1100 <main>
    11e8:	ff 15 f2 2d 00 00    	callq  *0x2df2(%rip)        # 3fe0 <__libc_start_main@GLIBC_2.2.5>
    11ee:	f4                   	hlt    
    11ef:	90                   	nop

00000000000011f0 <deregister_tm_clones>:
    11f0:	48 8d 3d 19 2e 00 00 	lea    0x2e19(%rip),%rdi        # 4010 <__TMC_END__>
    11f7:	48 8d 05 12 2e 00 00 	lea    0x2e12(%rip),%rax        # 4010 <__TMC_END__>
    11fe:	48 39 f8             	cmp    %rdi,%rax
    1201:	74 15                	je     1218 <deregister_tm_clones+0x28>
    1203:	48 8b 05 ce 2d 00 00 	mov    0x2dce(%rip),%rax        # 3fd8 <_ITM_deregisterTMCloneTable>
    120a:	48 85 c0             	test   %rax,%rax
    120d:	74 09                	je     1218 <deregister_tm_clones+0x28>
    120f:	ff e0                	jmpq   *%rax
    1211:	0f 1f 80 00 00 00 00 	nopl   0x0(%rax)
    1218:	c3                   	retq   
    1219:	0f 1f 80 00 00 00 00 	nopl   0x0(%rax)

0000000000001220 <register_tm_clones>:
    1220:	48 8d 3d e9 2d 00 00 	lea    0x2de9(%rip),%rdi        # 4010 <__TMC_END__>
    1227:	48 8d 35 e2 2d 00 00 	lea    0x2de2(%rip),%rsi        # 4010 <__TMC_END__>
    122e:	48 29 fe             	sub    %rdi,%rsi
    1231:	48 89 f0             	mov    %rsi,%rax
    1234:	48 c1 ee 3f          	shr    $0x3f,%rsi
    1238:	48 c1 f8 03          	sar    $0x3,%rax
    123c:	48 01 c6             	add    %rax,%rsi
    123f:	48 d1 fe             	sar    %rsi
    1242:	74 14                	je     1258 <register_tm_clones+0x38>
    1244:	48 8b 05 a5 2d 00 00 	mov    0x2da5(%rip),%rax        # 3ff0 <_ITM_registerTMCloneTable>
    124b:	48 85 c0             	test   %rax,%rax
    124e:	74 08                	je     1258 <register_tm_clones+0x38>
    1250:	ff e0                	jmpq   *%rax
    1252:	66 0f 1f 44 00 00    	nopw   0x0(%rax,%rax,1)
    1258:	c3                   	retq   
    1259:	0f 1f 80 00 00 00 00 	nopl   0x0(%rax)

0000000000001260 <__do_global_dtors_aux>:
    1260:	f3 0f 1e fa          	endbr64 
    1264:	80 3d e5 2e 00 00 00 	cmpb   $0x0,0x2ee5(%rip)        # 4150 <completed.8061>
    126b:	75 2b                	jne    1298 <__do_global_dtors_aux+0x38>
    126d:	55                   	push   %rbp
    126e:	48 83 3d 5a 2d 00 00 	cmpq   $0x0,0x2d5a(%rip)        # 3fd0 <__cxa_finalize@GLIBC_2.2.5>
    1275:	00 
    1276:	48 89 e5             	mov    %rsp,%rbp
    1279:	74 0c                	je     1287 <__do_global_dtors_aux+0x27>
    127b:	48 8b 3d 86 2d 00 00 	mov    0x2d86(%rip),%rdi        # 4008 <__dso_handle>
    1282:	e8 09 fe ff ff       	callq  1090 <__cxa_finalize@plt>
    1287:	e8 64 ff ff ff       	callq  11f0 <deregister_tm_clones>
    128c:	c6 05 bd 2e 00 00 01 	movb   $0x1,0x2ebd(%rip)        # 4150 <completed.8061>
    1293:	5d                   	pop    %rbp
    1294:	c3                   	retq   
    1295:	0f 1f 00             	nopl   (%rax)
    1298:	c3                   	retq   
    1299:	0f 1f 80 00 00 00 00 	nopl   0x0(%rax)

00000000000012a0 <frame_dummy>:
    12a0:	f3 0f 1e fa          	endbr64 
    12a4:	e9 77 ff ff ff       	jmpq   1220 <register_tm_clones>
    12a9:	0f 1f 80 00 00 00 00 	nopl   0x0(%rax)

00000000000012b0 <_Z10streamUnitRSoiRKNSt7__cxx1112basic_stringIcSt11char_traitsIcESaIcEEE>:
    12b0:	f3 0f 1e fa          	endbr64 
    12b4:	41 54                	push   %r12
    12b6:	49 89 fc             	mov    %rdi,%r12
    12b9:	55                   	push   %rbp
    12ba:	48 83 ec 08          	sub    $0x8,%rsp
    12be:	85 f6                	test   %esi,%esi
    12c0:	75 0e                	jne    12d0 <_Z10streamUnitRSoiRKNSt7__cxx1112basic_stringIcSt11char_traitsIcESaIcEEE+0x20>
    12c2:	48 83 c4 08          	add    $0x8,%rsp
    12c6:	4c 89 e0             	mov    %r12,%rax
    12c9:	5d                   	pop    %rbp
    12ca:	41 5c                	pop    %r12
    12cc:	c3                   	retq   
    12cd:	0f 1f 00             	nopl   (%rax)
    12d0:	48 89 d0             	mov    %rdx,%rax
    12d3:	89 f5                	mov    %esi,%ebp
    12d5:	48 8b 52 08          	mov    0x8(%rdx),%rdx
    12d9:	48 8b 30             	mov    (%rax),%rsi
    12dc:	e8 df fd ff ff       	callq  10c0 <_ZSt16__ostream_insertIcSt11char_traitsIcEERSt13basic_ostreamIT_T0_ES6_PKS3_l@plt>
    12e1:	83 fd 01             	cmp    $0x1,%ebp
    12e4:	74 dc                	je     12c2 <_Z10streamUnitRSoiRKNSt7__cxx1112basic_stringIcSt11char_traitsIcESaIcEEE+0x12>
    12e6:	4c 89 e7             	mov    %r12,%rdi
    12e9:	ba 01 00 00 00       	mov    $0x1,%edx
    12ee:	48 8d 35 0f 0d 00 00 	lea    0xd0f(%rip),%rsi        # 2004 <_IO_stdin_used+0x4>
    12f5:	e8 c6 fd ff ff       	callq  10c0 <_ZSt16__ostream_insertIcSt11char_traitsIcEERSt13basic_ostreamIT_T0_ES6_PKS3_l@plt>
    12fa:	89 ee                	mov    %ebp,%esi
    12fc:	4c 89 e7             	mov    %r12,%rdi
    12ff:	e8 ec fd ff ff       	callq  10f0 <_ZNSolsEi@plt>
    1304:	48 83 c4 08          	add    $0x8,%rsp
    1308:	4c 89 e0             	mov    %r12,%rax
    130b:	5d                   	pop    %rbp
    130c:	41 5c                	pop    %r12
    130e:	c3                   	retq   
    130f:	90                   	nop

0000000000001310 <__libc_csu_init>:
    1310:	f3 0f 1e fa          	endbr64 
    1314:	41 57                	push   %r15
    1316:	4c 8d 3d 53 2a 00 00 	lea    0x2a53(%rip),%r15        # 3d70 <__frame_dummy_init_array_entry>
    131d:	41 56                	push   %r14
    131f:	49 89 d6             	mov    %rdx,%r14
    1322:	41 55                	push   %r13
    1324:	49 89 f5             	mov    %rsi,%r13
    1327:	41 54                	push   %r12
    1329:	41 89 fc             	mov    %edi,%r12d
    132c:	55                   	push   %rbp
    132d:	48 8d 2d 4c 2a 00 00 	lea    0x2a4c(%rip),%rbp        # 3d80 <__do_global_dtors_aux_fini_array_entry>
    1334:	53                   	push   %rbx
    1335:	4c 29 fd             	sub    %r15,%rbp
    1338:	48 83 ec 08          	sub    $0x8,%rsp
    133c:	e8 bf fc ff ff       	callq  1000 <_init>
    1341:	48 c1 fd 03          	sar    $0x3,%rbp
    1345:	74 1f                	je     1366 <__libc_csu_init+0x56>
    1347:	31 db                	xor    %ebx,%ebx
    1349:	0f 1f 80 00 00 00 00 	nopl   0x0(%rax)
    1350:	4c 89 f2             	mov    %r14,%rdx
    1353:	4c 89 ee             	mov    %r13,%rsi
    1356:	44 89 e7             	mov    %r12d,%edi
    1359:	41 ff 14 df          	callq  *(%r15,%rbx,8)
    135d:	48 83 c3 01          	add    $0x1,%rbx
    1361:	48 39 dd             	cmp    %rbx,%rbp
    1364:	75 ea                	jne    1350 <__libc_csu_init+0x40>
    1366:	48 83 c4 08          	add    $0x8,%rsp
    136a:	5b                   	pop    %rbx
    136b:	5d                   	pop    %rbp
    136c:	41 5c                	pop    %r12
    136e:	41 5d                	pop    %r13
    1370:	41 5e                	pop    %r14
    1372:	41 5f                	pop    %r15
    1374:	c3                   	retq   
    1375:	66 66 2e 0f 1f 84 00 	data16 nopw %cs:0x0(%rax,%rax,1)
    137c:	00 00 00 00 

0000000000001380 <__libc_csu_fini>:
    1380:	f3 0f 1e fa          	endbr64 
    1384:	c3                   	retq   

Disassembly of section .fini:

0000000000001388 <_fini>:
    1388:	f3 0f 1e fa          	endbr64 
    138c:	48 83 ec 08          	sub    $0x8,%rsp
    1390:	48 83 c4 08          	add    $0x8,%rsp
    1394:	c3                   	retq   
